; Function Attrs: nounwind uwtable
define internal ptr @math_expm1(ptr readnone captures(none) %0, ptr noundef %1) #0 {
  %3 = tail call double @PyFloat_AsDouble(ptr noundef %1) #16
  %4 = fcmp oeq double %3, -1.000000e+00
  br i1 %4, label %5, label %7

5:                                                ; preds = %2
  %6 = tail call ptr @PyErr_Occurred() #16
  %.not.i = icmp eq ptr %6, null
  br i1 %.not.i, label %7, label %math_1.exit

7:                                                ; preds = %5, %2
  %8 = tail call ptr @__errno_location() #17
  store i32 0, ptr %8, align 4, !tbaa !14
  %9 = tail call double @expm1(double noundef %3) #16
  %10 = fcmp ord double %9, 0.000000e+00
  %11 = fcmp uno double %3, 0.000000e+00
  %or.cond.i = or i1 %11, %10
  br i1 %or.cond.i, label %12, label %33

12:                                               ; preds = %7
  %13 = tail call double @llvm.fabs.f64(double %9)
  %14 = fcmp une double %13, 0x7FF0000000000000
  %15 = tail call double @llvm.fabs.f64(double %3)
  %16 = fcmp ueq double %15, 0x7FF0000000000000
  %or.cond26.i = or i1 %16, %14
  br i1 %or.cond26.i, label %19, label %17

17:                                               ; preds = %12
  %18 = load ptr, ptr @PyExc_OverflowError, align 8, !tbaa !12
  tail call void @PyErr_SetString(ptr noundef %18, ptr noundef nonnull @.str.59) #16
  br label %math_1.exit

19:                                               ; preds = %12
  %20 = fcmp ueq double %13, 0x7FF0000000000000
  br i1 %20, label %is_error.exit.i, label %21

21:                                               ; preds = %19
  %22 = load i32, ptr %8, align 4, !tbaa !14
  switch i32 %22, label %29 [
    i32 0, label %is_error.exit.i
    i32 33, label %23
    i32 34, label %25
  ]

23:                                               ; preds = %21
  %24 = load ptr, ptr @PyExc_ValueError, align 8, !tbaa !12
  tail call void @PyErr_SetString(ptr noundef %24, ptr noundef nonnull @.str.60) #16
  br label %math_1.exit

25:                                               ; preds = %21
  %26 = fcmp olt double %13, 1.500000e+00
  br i1 %26, label %is_error.exit.i, label %27

27:                                               ; preds = %25
  %28 = load ptr, ptr @PyExc_OverflowError, align 8, !tbaa !12
  tail call void @PyErr_SetString(ptr noundef %28, ptr noundef nonnull @.str.59) #16
  br label %math_1.exit

29:                                               ; preds = %21
  %30 = load ptr, ptr @PyExc_ValueError, align 8, !tbaa !12
  %31 = tail call ptr @PyErr_SetFromErrno(ptr noundef %30) #16
  br label %math_1.exit

is_error.exit.i:                                  ; preds = %25, %21, %19
  %32 = tail call ptr @PyFloat_FromDouble(double noundef %9) #16
  br label %math_1.exit

33:                                               ; preds = %7
  %34 = load ptr, ptr @PyExc_ValueError, align 8, !tbaa !12
  tail call void @PyErr_SetString(ptr noundef %34, ptr noundef nonnull @.str.60) #16
  br label %math_1.exit

math_1.exit:                                      ; preds = %5, %17, %23, %27, %29, %is_error.exit.i, %33
  %.0.i = phi ptr [ null, %17 ], [ %32, %is_error.exit.i ], [ null, %5 ], [ null, %33 ], [ null, %23 ], [ null, %27 ], [ null, %29 ]
  ret ptr %.0.i
}